target datalayout = "e-m:e-p270:32:32-p271:32:32-p272:64:64-i64:64-i128:128-f80:128-n8:16:32:64-S128"
target triple = "x86_64-pc-linux-gnu"

%"struct.duckdb_brotli::HistogramCommand" = type { [704 x i32], i64, double }

; Function Attrs: mustprogress uwtable
define noundef i64 @_ZN13duckdb_brotli29BrotliHistogramReindexCommandEPNS_13MemoryManagerEPNS_16HistogramCommandEPjm(ptr noundef %0, ptr noundef %1, ptr noundef %2, i64 noundef %3) #0 {
  %5 = alloca ptr, align 8
  %6 = alloca ptr, align 8
  %7 = alloca ptr, align 8
  %8 = alloca i64, align 8
  %9 = alloca ptr, align 8
  %10 = alloca i32, align 4
  %11 = alloca ptr, align 8
  %12 = alloca i64, align 8
  store ptr %0, ptr %5, align 8, !tbaa !44
  store ptr %1, ptr %6, align 8, !tbaa !55
  store ptr %2, ptr %7, align 8, !tbaa !8
  store i64 %3, ptr %8, align 8, !tbaa !12
  call void @llvm.lifetime.start.p0(i64 8, ptr %9) #9
  %13 = load i64, ptr %8, align 8, !tbaa !12
  %14 = icmp ugt i64 %13, 0
  br i1 %14, label %15, label %20

15:                                               ; preds = %4
  %16 = load ptr, ptr %5, align 8, !tbaa !44
  %17 = load i64, ptr %8, align 8, !tbaa !12
  %18 = mul i64 %17, 4
  %19 = call noundef ptr @_ZN13duckdb_brotli14BrotliAllocateEPNS_13MemoryManagerEm(ptr noundef %16, i64 noundef %18)
  br label %21

20:                                               ; preds = %4
  br label %21

21:                                               ; preds = %20, %15
  %22 = phi ptr [ %19, %15 ], [ null, %20 ]
  store ptr %22, ptr %9, align 8, !tbaa !8
  call void @llvm.lifetime.start.p0(i64 4, ptr %10) #9
  call void @llvm.lifetime.start.p0(i64 8, ptr %11) #9
  call void @llvm.lifetime.start.p0(i64 8, ptr %12) #9
  store i64 0, ptr %12, align 8, !tbaa !12
  br label %23

23:                                               ; preds = %31, %21
  %24 = load i64, ptr %12, align 8, !tbaa !12
  %25 = load i64, ptr %8, align 8, !tbaa !12
  %26 = icmp ult i64 %24, %25
  br i1 %26, label %27, label %34

27:                                               ; preds = %23
  %28 = load ptr, ptr %9, align 8, !tbaa !8
  %29 = load i64, ptr %12, align 8, !tbaa !12
  %30 = getelementptr inbounds nuw i32, ptr %28, i64 %29
  store i32 -1, ptr %30, align 4, !tbaa !10
  br label %31

31:                                               ; preds = %27
  %32 = load i64, ptr %12, align 8, !tbaa !12
  %33 = add i64 %32, 1
  store i64 %33, ptr %12, align 8, !tbaa !12
  br label %23, !llvm.loop !73

34:                                               ; preds = %23
  store i32 0, ptr %10, align 4, !tbaa !10
  store i64 0, ptr %12, align 8, !tbaa !12
  br label %35

35:                                               ; preds = %61, %34
  %36 = load i64, ptr %12, align 8, !tbaa !12
  %37 = load i64, ptr %8, align 8, !tbaa !12
  %38 = icmp ult i64 %36, %37
  br i1 %38, label %39, label %64

39:                                               ; preds = %35
  %40 = load ptr, ptr %9, align 8, !tbaa !8
  %41 = load ptr, ptr %7, align 8, !tbaa !8
  %42 = load i64, ptr %12, align 8, !tbaa !12
  %43 = getelementptr inbounds nuw i32, ptr %41, i64 %42
  %44 = load i32, ptr %43, align 4, !tbaa !10
  %45 = zext i32 %44 to i64
  %46 = getelementptr inbounds nuw i32, ptr %40, i64 %45
  %47 = load i32, ptr %46, align 4, !tbaa !10
  %48 = icmp eq i32 %47, -1
  br i1 %48, label %49, label %60

49:                                               ; preds = %39
  %50 = load i32, ptr %10, align 4, !tbaa !10
  %51 = load ptr, ptr %9, align 8, !tbaa !8
  %52 = load ptr, ptr %7, align 8, !tbaa !8
  %53 = load i64, ptr %12, align 8, !tbaa !12
  %54 = getelementptr inbounds nuw i32, ptr %52, i64 %53
  %55 = load i32, ptr %54, align 4, !tbaa !10
  %56 = zext i32 %55 to i64
  %57 = getelementptr inbounds nuw i32, ptr %51, i64 %56
  store i32 %50, ptr %57, align 4, !tbaa !10
  %58 = load i32, ptr %10, align 4, !tbaa !10
  %59 = add i32 %58, 1
  store i32 %59, ptr %10, align 4, !tbaa !10
  br label %60

60:                                               ; preds = %49, %39
  br label %61

61:                                               ; preds = %60
  %62 = load i64, ptr %12, align 8, !tbaa !12
  %63 = add i64 %62, 1
  store i64 %63, ptr %12, align 8, !tbaa !12
  br label %35, !llvm.loop !74

64:                                               ; preds = %35
  %65 = load i32, ptr %10, align 4, !tbaa !10
  %66 = icmp ugt i32 %65, 0
  br i1 %66, label %67, label %73

67:                                               ; preds = %64
  %68 = load ptr, ptr %5, align 8, !tbaa !44
  %69 = load i32, ptr %10, align 4, !tbaa !10
  %70 = zext i32 %69 to i64
  %71 = mul i64 %70, 2832
  %72 = call noundef ptr @_ZN13duckdb_brotli14BrotliAllocateEPNS_13MemoryManagerEm(ptr noundef %68, i64 noundef %71)
  br label %74

73:                                               ; preds = %64
  br label %74

74:                                               ; preds = %73, %67
  %75 = phi ptr [ %72, %67 ], [ null, %73 ]
  store ptr %75, ptr %11, align 8, !tbaa !55
  store i32 0, ptr %10, align 4, !tbaa !10
  store i64 0, ptr %12, align 8, !tbaa !12
  br label %76

76:                                               ; preds = %117, %74
  %77 = load i64, ptr %12, align 8, !tbaa !12
  %78 = load i64, ptr %8, align 8, !tbaa !12
  %79 = icmp ult i64 %77, %78
  br i1 %79, label %80, label %120

80:                                               ; preds = %76
  %81 = load ptr, ptr %9, align 8, !tbaa !8
  %82 = load ptr, ptr %7, align 8, !tbaa !8
  %83 = load i64, ptr %12, align 8, !tbaa !12
  %84 = getelementptr inbounds nuw i32, ptr %82, i64 %83
  %85 = load i32, ptr %84, align 4, !tbaa !10
  %86 = zext i32 %85 to i64
  %87 = getelementptr inbounds nuw i32, ptr %81, i64 %86
  %88 = load i32, ptr %87, align 4, !tbaa !10
  %89 = load i32, ptr %10, align 4, !tbaa !10
  %90 = icmp eq i32 %88, %89
  br i1 %90, label %91, label %105

91:                                               ; preds = %80
  %92 = load ptr, ptr %6, align 8, !tbaa !55
  %93 = load ptr, ptr %7, align 8, !tbaa !8
  %94 = load i64, ptr %12, align 8, !tbaa !12
  %95 = getelementptr inbounds nuw i32, ptr %93, i64 %94
  %96 = load i32, ptr %95, align 4, !tbaa !10
  %97 = zext i32 %96 to i64
  %98 = getelementptr inbounds nuw %"struct.duckdb_brotli::HistogramCommand", ptr %92, i64 %97
  %99 = load ptr, ptr %11, align 8, !tbaa !55
  %100 = load i32, ptr %10, align 4, !tbaa !10
  %101 = zext i32 %100 to i64
  %102 = getelementptr inbounds nuw %"struct.duckdb_brotli::HistogramCommand", ptr %99, i64 %101
  call void @llvm.memcpy.p0.p0.i64(ptr align 8 %102, ptr align 8 %98, i64 2832, i1 false), !tbaa.struct !60
  %103 = load i32, ptr %10, align 4, !tbaa !10
  %104 = add i32 %103, 1
  store i32 %104, ptr %10, align 4, !tbaa !10
  br label %105

105:                                              ; preds = %91, %80
  %106 = load ptr, ptr %9, align 8, !tbaa !8
  %107 = load ptr, ptr %7, align 8, !tbaa !8
  %108 = load i64, ptr %12, align 8, !tbaa !12
  %109 = getelementptr inbounds nuw i32, ptr %107, i64 %108
  %110 = load i32, ptr %109, align 4, !tbaa !10
  %111 = zext i32 %110 to i64
  %112 = getelementptr inbounds nuw i32, ptr %106, i64 %111
  %113 = load i32, ptr %112, align 4, !tbaa !10
  %114 = load ptr, ptr %7, align 8, !tbaa !8
  %115 = load i64, ptr %12, align 8, !tbaa !12
  %116 = getelementptr inbounds nuw i32, ptr %114, i64 %115
  store i32 %113, ptr %116, align 4, !tbaa !10
  br label %117

117:                                              ; preds = %105
  %118 = load i64, ptr %12, align 8, !tbaa !12
  %119 = add i64 %118, 1
  store i64 %119, ptr %12, align 8, !tbaa !12
  br label %76, !llvm.loop !75

120:                                              ; preds = %76
  %121 = load ptr, ptr %5, align 8, !tbaa !44
  %122 = load ptr, ptr %9, align 8, !tbaa !8
  call void @_ZN13duckdb_brotli10BrotliFreeEPNS_13MemoryManagerEPv(ptr noundef %121, ptr noundef %122)
  store ptr null, ptr %9, align 8, !tbaa !8
  store i64 0, ptr %12, align 8, !tbaa !12
  br label %123

123:                                              ; preds = %135, %120
  %124 = load i64, ptr %12, align 8, !tbaa !12
  %125 = load i32, ptr %10, align 4, !tbaa !10
  %126 = zext i32 %125 to i64
  %127 = icmp ult i64 %124, %126
  br i1 %127, label %128, label %138

128:                                              ; preds = %123
  %129 = load ptr, ptr %11, align 8, !tbaa !55
  %130 = load i64, ptr %12, align 8, !tbaa !12
  %131 = getelementptr inbounds nuw %"struct.duckdb_brotli::HistogramCommand", ptr %129, i64 %130
  %132 = load ptr, ptr %6, align 8, !tbaa !55
  %133 = load i64, ptr %12, align 8, !tbaa !12
  %134 = getelementptr inbounds nuw %"struct.duckdb_brotli::HistogramCommand", ptr %132, i64 %133
  call void @llvm.memcpy.p0.p0.i64(ptr align 8 %134, ptr align 8 %131, i64 2832, i1 false), !tbaa.struct !60
  br label %135

135:                                              ; preds = %128
  %136 = load i64, ptr %12, align 8, !tbaa !12
  %137 = add i64 %136, 1
  store i64 %137, ptr %12, align 8, !tbaa !12
  br label %123, !llvm.loop !76

138:                                              ; preds = %123
  %139 = load ptr, ptr %5, align 8, !tbaa !44
  %140 = load ptr, ptr %11, align 8, !tbaa !55
  call void @_ZN13duckdb_brotli10BrotliFreeEPNS_13MemoryManagerEPv(ptr noundef %139, ptr noundef %140)
  store ptr null, ptr %11, align 8, !tbaa !55
  %141 = load i32, ptr %10, align 4, !tbaa !10
  %142 = zext i32 %141 to i64
  call void @llvm.lifetime.end.p0(i64 8, ptr %12) #9
  call void @llvm.lifetime.end.p0(i64 8, ptr %11) #9
  call void @llvm.lifetime.end.p0(i64 4, ptr %10) #9
  call void @llvm.lifetime.end.p0(i64 8, ptr %9) #9
  ret i64 %142
}