; Function Attrs: mustprogress uwtable
define noundef range(i64 0, 4294967296) i64 @_ZN13duckdb_brotli29BrotliHistogramReindexCommandEPNS_13MemoryManagerEPNS_16HistogramCommandEPjm(ptr noundef %0, ptr noundef captures(none) %1, ptr noundef captures(none) %2, i64 noundef %3) local_unnamed_addr #0 {
  %.not = icmp eq i64 %3, 0
  br i1 %.not, label %._crit_edge67.thread, label %.lr.ph62.preheader

._crit_edge67.thread:                             ; preds = %4
  tail call void @_ZN13duckdb_brotli10BrotliFreeEPNS_13MemoryManagerEPv(ptr noundef %0, ptr noundef null)
  br label %._crit_edge72

.lr.ph62.preheader:                               ; preds = %4
  %5 = shl i64 %3, 2
  %6 = tail call noundef ptr @_ZN13duckdb_brotli14BrotliAllocateEPNS_13MemoryManagerEm(ptr noundef %0, i64 noundef %5)
  %7 = shl nuw i64 %3, 2
  tail call void @llvm.memset.p0.i64(ptr align 4 %6, i8 -1, i64 %7, i1 false), !tbaa !3
  br label %.lr.ph62

.lr.ph62:                                         ; preds = %.lr.ph62.preheader, %16
  %.161 = phi i64 [ %17, %16 ], [ 0, %.lr.ph62.preheader ]
  %.05160 = phi i32 [ %.152, %16 ], [ 0, %.lr.ph62.preheader ]
  %8 = getelementptr inbounds nuw i32, ptr %2, i64 %.161
  %9 = load i32, ptr %8, align 4, !tbaa !3
  %10 = zext i32 %9 to i64
  %11 = getelementptr inbounds nuw i32, ptr %6, i64 %10
  %12 = load i32, ptr %11, align 4, !tbaa !3
  %13 = icmp eq i32 %12, -1
  br i1 %13, label %14, label %16

14:                                               ; preds = %.lr.ph62
  store i32 %.05160, ptr %11, align 4, !tbaa !3
  %15 = add i32 %.05160, 1
  br label %16

16:                                               ; preds = %.lr.ph62, %14
  %.152 = phi i32 [ %15, %14 ], [ %.05160, %.lr.ph62 ]
  %17 = add nuw i64 %.161, 1
  %exitcond.not = icmp eq i64 %17, %3
  br i1 %exitcond.not, label %._crit_edge, label %.lr.ph62, !llvm.loop !62

._crit_edge:                                      ; preds = %16
  %.not58 = icmp eq i32 %.152, 0
  br i1 %.not58, label %.lr.ph66.preheader, label %18

18:                                               ; preds = %._crit_edge
  %19 = zext i32 %.152 to i64
  %20 = mul nuw nsw i64 %19, 2832
  %21 = tail call noundef ptr @_ZN13duckdb_brotli14BrotliAllocateEPNS_13MemoryManagerEm(ptr noundef %0, i64 noundef %20)
  br label %.lr.ph66.preheader

.lr.ph66.preheader:                               ; preds = %._crit_edge, %18
  %.ph = phi ptr [ null, %._crit_edge ], [ %21, %18 ]
  br label %.lr.ph66

.lr.ph66:                                         ; preds = %.lr.ph66.preheader, %33
  %.264 = phi i64 [ %35, %33 ], [ 0, %.lr.ph66.preheader ]
  %.25363 = phi i32 [ %.354, %33 ], [ 0, %.lr.ph66.preheader ]
  %22 = getelementptr inbounds nuw i32, ptr %2, i64 %.264
  %23 = load i32, ptr %22, align 4, !tbaa !3
  %24 = zext i32 %23 to i64
  %25 = getelementptr inbounds nuw i32, ptr %6, i64 %24
  %26 = load i32, ptr %25, align 4, !tbaa !3
  %27 = icmp eq i32 %26, %.25363
  br i1 %27, label %28, label %33

28:                                               ; preds = %.lr.ph66
  %29 = getelementptr inbounds nuw %"struct.duckdb_brotli::HistogramCommand", ptr %1, i64 %24
  %30 = zext i32 %.25363 to i64
  %31 = getelementptr inbounds nuw %"struct.duckdb_brotli::HistogramCommand", ptr %.ph, i64 %30
  tail call void @llvm.memcpy.p0.p0.i64(ptr noundef nonnull align 8 dereferenceable(2832) %31, ptr noundef nonnull align 8 dereferenceable(2832) %29, i64 2832, i1 false), !tbaa.struct !48
  %32 = add i32 %.25363, 1
  %.pre = load i32, ptr %22, align 4, !tbaa !3
  %.phi.trans.insert = zext i32 %.pre to i64
  %.phi.trans.insert80 = getelementptr inbounds nuw i32, ptr %6, i64 %.phi.trans.insert
  %.pre81 = load i32, ptr %.phi.trans.insert80, align 4, !tbaa !3
  br label %33

33:                                               ; preds = %28, %.lr.ph66
  %34 = phi i32 [ %.pre81, %28 ], [ %26, %.lr.ph66 ]
  %.354 = phi i32 [ %32, %28 ], [ %.25363, %.lr.ph66 ]
  store i32 %34, ptr %22, align 4, !tbaa !3
  %35 = add nuw i64 %.264, 1
  %exitcond78.not = icmp eq i64 %35, %3
  br i1 %exitcond78.not, label %._crit_edge67, label %.lr.ph66, !llvm.loop !63

._crit_edge67:                                    ; preds = %33
  tail call void @_ZN13duckdb_brotli10BrotliFreeEPNS_13MemoryManagerEPv(ptr noundef %0, ptr noundef nonnull %6)
  %36 = zext i32 %.354 to i64
  %.not77 = icmp eq i32 %.354, 0
  br i1 %.not77, label %._crit_edge72, label %.lr.ph71

.lr.ph71:                                         ; preds = %._crit_edge67, %.lr.ph71
  %.369 = phi i64 [ %39, %.lr.ph71 ], [ 0, %._crit_edge67 ]
  %37 = getelementptr inbounds nuw %"struct.duckdb_brotli::HistogramCommand", ptr %.ph, i64 %.369
  %38 = getelementptr inbounds nuw %"struct.duckdb_brotli::HistogramCommand", ptr %1, i64 %.369
  tail call void @llvm.memcpy.p0.p0.i64(ptr noundef nonnull align 8 dereferenceable(2832) %38, ptr noundef nonnull align 8 dereferenceable(2832) %37, i64 2832, i1 false), !tbaa.struct !48
  %39 = add nuw nsw i64 %.369, 1
  %exitcond79.not = icmp eq i64 %39, %36
  br i1 %exitcond79.not, label %._crit_edge72, label %.lr.ph71, !llvm.loop !64

._crit_edge72:                                    ; preds = %.lr.ph71, %._crit_edge67.thread, %._crit_edge67
  %40 = phi i64 [ 0, %._crit_edge67.thread ], [ 0, %._crit_edge67 ], [ %36, %.lr.ph71 ]
  %41 = phi ptr [ null, %._crit_edge67.thread ], [ %.ph, %._crit_edge67 ], [ %.ph, %.lr.ph71 ]
  tail call void @_ZN13duckdb_brotli10BrotliFreeEPNS_13MemoryManagerEPv(ptr noundef %0, ptr noundef %41)
  ret i64 %40
}